target datalayout = "e-m:e-p270:32:32-p271:32:32-p272:64:64-i64:64-i128:128-f80:128-n8:16:32:64-S128"
target triple = "x86_64-pc-linux-gnu"

%struct._lv_textarea_t = type { %struct._lv_obj_t, ptr, ptr, ptr, ptr, ptr, i32, i32, %struct.anon, i32, i32, i8 }
%struct._lv_obj_t = type { ptr, ptr, ptr, ptr, ptr, %struct.lv_area_t, i32, i16, i16 }
%struct.lv_area_t = type { i32, i32, i32, i32 }
%struct.anon = type { i32, i32, %struct.lv_area_t, i32, i8 }
%struct._lv_anim_t = type { ptr, ptr, ptr, ptr, ptr, ptr, ptr, ptr, ptr, i32, i32, i32, i32, i32, i32, i32, i32, i32, %union._lv_anim_path_para_t, i32, i32, i32, i8 }
%union._lv_anim_path_para_t = type { %struct.lv_anim_bezier3_para_t }
%struct.lv_anim_bezier3_para_t = type { i16, i16, i16, i16 }
%union.lv_style_value_t = type { ptr }

; Function Attrs: inlinehint nounwind uwtable
define internal i32 @lv_obj_get_style_anim_duration(ptr noundef %0, i32 noundef %1) #4 {
  %3 = alloca ptr, align 8
  %4 = alloca i32, align 4
  %5 = alloca %union.lv_style_value_t, align 8
  store ptr %0, ptr %3, align 8, !tbaa !8
  store i32 %1, ptr %4, align 4, !tbaa !32
  call void @llvm.lifetime.start.p0(i64 8, ptr %5) #6
  %6 = load ptr, ptr %3, align 8, !tbaa !8
  %7 = load i32, ptr %4, align 4, !tbaa !32
  %8 = call ptr @lv_obj_get_style_prop(ptr noundef %6, i32 noundef %7, i8 noundef zeroext 100)
  %9 = getelementptr inbounds nuw %union.lv_style_value_t, ptr %5, i32 0, i32 0
  store ptr %8, ptr %9, align 8
  %10 = load i32, ptr %5, align 8, !tbaa !35
  call void @llvm.lifetime.end.p0(i64 8, ptr %5) #6
  ret i32 %10
}

; Function Attrs: nounwind uwtable
define internal void @start_cursor_blink(ptr noundef %0) #0 {
  %2 = alloca ptr, align 8
  %3 = alloca ptr, align 8
  %4 = alloca i32, align 4
  %5 = alloca %struct._lv_anim_t, align 8
  store ptr %0, ptr %2, align 8, !tbaa !8
  call void @llvm.lifetime.start.p0(i64 8, ptr %3) #6
  %6 = load ptr, ptr %2, align 8, !tbaa !8
  store ptr %6, ptr %3, align 8, !tbaa !10
  call void @llvm.lifetime.start.p0(i64 4, ptr %4) #6
  %7 = load ptr, ptr %2, align 8, !tbaa !8
  %8 = call i32 @lv_obj_get_style_anim_duration(ptr noundef %7, i32 noundef 393216)
  store i32 %8, ptr %4, align 4, !tbaa !32
  %9 = load i32, ptr %4, align 4, !tbaa !32
  %10 = icmp eq i32 %9, 0
  br i1 %10, label %11, label %20

11:                                               ; preds = %1
  %12 = load ptr, ptr %2, align 8, !tbaa !8
  %13 = call zeroext i1 @lv_anim_delete(ptr noundef %12, ptr noundef @cursor_blink_anim_cb)
  %14 = load ptr, ptr %3, align 8, !tbaa !10
  %15 = getelementptr inbounds nuw %struct._lv_textarea_t, ptr %14, i32 0, i32 8
  %16 = getelementptr inbounds nuw %struct.anon, ptr %15, i32 0, i32 4
  %17 = load i8, ptr %16, align 4
  %18 = and i8 %17, -2
  %19 = or i8 %18, 1
  store i8 %19, ptr %16, align 4
  br label %25

20:                                               ; preds = %1
  call void @llvm.lifetime.start.p0(i64 136, ptr %5) #6
  call void @lv_anim_init(ptr noundef %5)
  %21 = load ptr, ptr %3, align 8, !tbaa !10
  call void @lv_anim_set_var(ptr noundef %5, ptr noundef %21)
  call void @lv_anim_set_exec_cb(ptr noundef %5, ptr noundef @cursor_blink_anim_cb)
  %22 = load i32, ptr %4, align 4, !tbaa !32
  call void @lv_anim_set_duration(ptr noundef %5, i32 noundef %22)
  %23 = load i32, ptr %4, align 4, !tbaa !32
  call void @lv_anim_set_reverse_duration(ptr noundef %5, i32 noundef %23)
  call void @lv_anim_set_values(ptr noundef %5, i32 noundef 1, i32 noundef 0)
  call void @lv_anim_set_path_cb(ptr noundef %5, ptr noundef @lv_anim_path_step)
  call void @lv_anim_set_repeat_count(ptr noundef %5, i32 noundef -1)
  %24 = call ptr @lv_anim_start(ptr noundef %5)
  call void @llvm.lifetime.end.p0(i64 136, ptr %5) #6
  br label %25

25:                                               ; preds = %20, %11
  call void @llvm.lifetime.end.p0(i64 4, ptr %4) #6
  call void @llvm.lifetime.end.p0(i64 8, ptr %3) #6
  ret void
}