; Function Attrs: nounwind uwtable
define internal fastcc void @start_cursor_blink(ptr noundef %0) unnamed_addr #0 {
  %2 = alloca %struct._lv_anim_t, align 8
  %3 = tail call ptr @lv_obj_get_style_prop(ptr noundef %0, i32 noundef 393216, i8 noundef zeroext 100) #10
  %4 = ptrtoint ptr %3 to i64
  %.sroa.0.0.extract.trunc.i = trunc i64 %4 to i32
  %5 = icmp eq i32 %.sroa.0.0.extract.trunc.i, 0
  br i1 %5, label %6, label %11

6:                                                ; preds = %1
  %7 = tail call zeroext i1 @lv_anim_delete(ptr noundef %0, ptr noundef nonnull @cursor_blink_anim_cb) #10
  %8 = getelementptr inbounds nuw i8, ptr %0, i64 140
  %9 = load i8, ptr %8, align 4
  %10 = or i8 %9, 1
  store i8 %10, ptr %8, align 4
  br label %13

11:                                               ; preds = %1
  call void @llvm.lifetime.start.p0(i64 136, ptr nonnull %2) #10
  call void @lv_anim_init(ptr noundef nonnull %2) #10
  call void @lv_anim_set_var(ptr noundef nonnull %2, ptr noundef %0) #10
  call void @lv_anim_set_exec_cb(ptr noundef nonnull %2, ptr noundef nonnull @cursor_blink_anim_cb) #10
  call void @lv_anim_set_duration(ptr noundef nonnull %2, i32 noundef %.sroa.0.0.extract.trunc.i) #10
  call void @lv_anim_set_reverse_duration(ptr noundef nonnull %2, i32 noundef %.sroa.0.0.extract.trunc.i) #10
  call void @lv_anim_set_values(ptr noundef nonnull %2, i32 noundef 1, i32 noundef 0) #10
  call void @lv_anim_set_path_cb(ptr noundef nonnull %2, ptr noundef nonnull @lv_anim_path_step) #10
  call void @lv_anim_set_repeat_count(ptr noundef nonnull %2, i32 noundef -1) #10
  %12 = call ptr @lv_anim_start(ptr noundef nonnull %2) #10
  call void @llvm.lifetime.end.p0(i64 136, ptr nonnull %2) #10
  br label %13

13:                                               ; preds = %11, %6
  ret void
}